target datalayout = "e-m:e-p270:32:32-p271:32:32-p272:64:64-i64:64-i128:128-f80:128-n8:16:32:64-S128"
target triple = "x86_64-unknown-linux-gnu"

; Function Attrs: mustprogress nounwind uwtable
define internal noundef signext i8 @_ZL9U_FAILURE10UErrorCode(i32 noundef %code) #0 {
entry:
  %code.addr = alloca i32, align 4
  store i32 %code, ptr %code.addr, align 4
  %0 = load i32, ptr %code.addr, align 4
  %cmp = icmp sgt i32 %0, 0
  %conv = zext i1 %cmp to i8
  ret i8 %conv
}

; Function Attrs: mustprogress uwtable
define noundef signext i8 @_ZN6icu_7512ByteSinkUtil12appendChangeEPKhS2_PKDsiRNS_8ByteSinkEPNS_5EditsER10UErrorCode(ptr noundef %s, ptr noundef %limit, ptr noundef %s16, i32 noundef %s16Length, ptr noundef nonnull align 8 dereferenceable(8) %sink, ptr noundef %edits, ptr noundef nonnull align 4 dereferenceable(4) %errorCode) #1 align 2 {
entry:
  %retval = alloca i8, align 1
  %s.addr = alloca ptr, align 8
  %limit.addr = alloca ptr, align 8
  %s16.addr = alloca ptr, align 8
  %s16Length.addr = alloca i32, align 4
  %sink.addr = alloca ptr, align 8
  %edits.addr = alloca ptr, align 8
  %errorCode.addr = alloca ptr, align 8
  store ptr %s, ptr %s.addr, align 8
  store ptr %limit, ptr %limit.addr, align 8
  store ptr %s16, ptr %s16.addr, align 8
  store i32 %s16Length, ptr %s16Length.addr, align 4
  store ptr %sink, ptr %sink.addr, align 8
  store ptr %edits, ptr %edits.addr, align 8
  store ptr %errorCode, ptr %errorCode.addr, align 8
  %0 = load ptr, ptr %errorCode.addr, align 8
  %1 = load i32, ptr %0, align 4
  %call = call noundef signext i8 @_ZL9U_FAILURE10UErrorCode(i32 noundef %1)
  %tobool = icmp ne i8 %call, 0
  br i1 %tobool, label %if.then, label %if.end

if.then:                                          ; preds = %entry
  store i8 0, ptr %retval, align 1
  br label %return

if.end:                                           ; preds = %entry
  %2 = load ptr, ptr %limit.addr, align 8
  %3 = load ptr, ptr %s.addr, align 8
  %sub.ptr.lhs.cast = ptrtoint ptr %2 to i64
  %sub.ptr.rhs.cast = ptrtoint ptr %3 to i64
  %sub.ptr.sub = sub i64 %sub.ptr.lhs.cast, %sub.ptr.rhs.cast
  %cmp = icmp sgt i64 %sub.ptr.sub, 2147483647
  br i1 %cmp, label %if.then1, label %if.end2

if.then1:                                         ; preds = %if.end
  %4 = load ptr, ptr %errorCode.addr, align 8
  store i32 8, ptr %4, align 4
  store i8 0, ptr %retval, align 1
  br label %return

if.end2:                                          ; preds = %if.end
  %5 = load ptr, ptr %limit.addr, align 8
  %6 = load ptr, ptr %s.addr, align 8
  %sub.ptr.lhs.cast3 = ptrtoint ptr %5 to i64
  %sub.ptr.rhs.cast4 = ptrtoint ptr %6 to i64
  %sub.ptr.sub5 = sub i64 %sub.ptr.lhs.cast3, %sub.ptr.rhs.cast4
  %conv = trunc i64 %sub.ptr.sub5 to i32
  %7 = load ptr, ptr %s16.addr, align 8
  %8 = load i32, ptr %s16Length.addr, align 4
  %9 = load ptr, ptr %sink.addr, align 8
  %10 = load ptr, ptr %edits.addr, align 8
  %11 = load ptr, ptr %errorCode.addr, align 8
  %call6 = call noundef signext i8 @_ZN6icu_7512ByteSinkUtil12appendChangeEiPKDsiRNS_8ByteSinkEPNS_5EditsER10UErrorCode(i32 noundef %conv, ptr noundef %7, i32 noundef %8, ptr noundef nonnull align 8 dereferenceable(8) %9, ptr noundef %10, ptr noundef nonnull align 4 dereferenceable(4) %11)
  store i8 %call6, ptr %retval, align 1
  br label %return

return:                                           ; preds = %if.end2, %if.then1, %if.then
  %12 = load i8, ptr %retval, align 1
  ret i8 %12
}