; Function Attrs: mustprogress uwtable
define noundef signext i8 @_ZN6icu_7512ByteSinkUtil12appendChangeEPKhS2_PKDsiRNS_8ByteSinkEPNS_5EditsER10UErrorCode(ptr noundef %s, ptr noundef %limit, ptr nocapture noundef readonly %s16, i32 noundef %s16Length, ptr noundef nonnull align 8 dereferenceable(8) %sink, ptr noundef %edits, ptr nocapture noundef nonnull align 4 dereferenceable(4) %errorCode) local_unnamed_addr #1 align 2 {
entry:
  %0 = load i32, ptr %errorCode, align 4
  %cmp.i = icmp slt i32 %0, 1
  br i1 %cmp.i, label %if.end, label %return

if.end:                                           ; preds = %entry
  %sub.ptr.lhs.cast = ptrtoint ptr %limit to i64
  %sub.ptr.rhs.cast = ptrtoint ptr %s to i64
  %sub.ptr.sub = sub i64 %sub.ptr.lhs.cast, %sub.ptr.rhs.cast
  %cmp = icmp sgt i64 %sub.ptr.sub, 2147483647
  br i1 %cmp, label %if.then1, label %if.end2

if.then1:                                         ; preds = %if.end
  store i32 8, ptr %errorCode, align 4
  br label %return

if.end2:                                          ; preds = %if.end
  %conv = trunc i64 %sub.ptr.sub to i32
  %call6 = tail call noundef signext i8 @_ZN6icu_7512ByteSinkUtil12appendChangeEiPKDsiRNS_8ByteSinkEPNS_5EditsER10UErrorCode(i32 noundef %conv, ptr noundef %s16, i32 noundef %s16Length, ptr noundef nonnull align 8 dereferenceable(8) %sink, ptr noundef %edits, ptr noundef nonnull align 4 dereferenceable(4) %errorCode), !range !7
  br label %return

return:                                           ; preds = %entry, %if.end2, %if.then1
  %retval.0 = phi i8 [ 0, %if.then1 ], [ %call6, %if.end2 ], [ 0, %entry ]
  ret i8 %retval.0
}